target datalayout = "e-m:e-p270:32:32-p271:32:32-p272:64:64-i64:64-i128:128-f80:128-n8:16:32:64-S128"
target triple = "x86_64-pc-linux-gnu"

%"struct.rocksdb::BufferInfo" = type { %"class.rocksdb::AlignedBuffer", i64, i64, i8, ptr, %"class.std::function", i64 }
%"class.rocksdb::AlignedBuffer" = type { i64, %"class.std::unique_ptr", i64, i64, ptr }
%"class.std::unique_ptr" = type { %"struct.std::__uniq_ptr_data" }
%"struct.std::__uniq_ptr_data" = type { %"class.std::__uniq_ptr_impl" }
%"class.std::__uniq_ptr_impl" = type { %"class.std::tuple" }
%"class.std::tuple" = type { %"struct.std::_Tuple_impl" }
%"struct.std::_Tuple_impl" = type { %"struct.std::_Tuple_impl.0", %"struct.std::_Head_base.1" }
%"struct.std::_Tuple_impl.0" = type { %"struct.std::_Head_base" }
%"struct.std::_Head_base" = type { %"class.std::function" }
%"struct.std::_Head_base.1" = type { ptr }
%"class.std::function" = type { %"class.std::_Function_base", ptr }
%"class.std::_Function_base" = type { %"union.std::_Any_data", ptr }
%"union.std::_Any_data" = type { %"union.std::_Nocopy_types" }
%"union.std::_Nocopy_types" = type { { i64, i64 } }
%"class.rocksdb::Status" = type { i8, i8, i8, i8, i8, i8, %"class.std::unique_ptr.2" }
%"class.std::unique_ptr.2" = type { %"struct.std::__uniq_ptr_data.3" }
%"struct.std::__uniq_ptr_data.3" = type { %"class.std::__uniq_ptr_impl.4" }
%"class.std::__uniq_ptr_impl.4" = type { %"class.std::tuple.5" }
%"class.std::tuple.5" = type { %"struct.std::_Tuple_impl.6" }
%"struct.std::_Tuple_impl.6" = type { %"struct.std::_Head_base.9" }
%"struct.std::_Head_base.9" = type { ptr }
%"class.rocksdb::Slice" = type { ptr, i64 }
%"class.rocksdb::IOStatus" = type { %"class.rocksdb::Status" }
%"struct.rocksdb::FSReadRequest" = type { i64, i64, ptr, %"class.rocksdb::Slice", %"class.rocksdb::IOStatus", %"class.std::unique_ptr" }

; Function Attrs: mustprogress nounwind uwtable
define linkonce_odr noundef i64 @_ZNK7rocksdb13AlignedBuffer11CurrentSizeEv(ptr noundef nonnull align 8 dereferenceable(72) %0) #2 comdat align 2 {
  %2 = alloca ptr, align 8
  store ptr %0, ptr %2, align 8, !tbaa !33
  %3 = load ptr, ptr %2, align 8
  %4 = getelementptr inbounds nuw %"class.rocksdb::AlignedBuffer", ptr %3, i32 0, i32 3
  %5 = load i64, ptr %4, align 8, !tbaa !37
  ret i64 %5
}

; Function Attrs: mustprogress nounwind uwtable
define linkonce_odr noundef zeroext i8 @_ZNK7rocksdb6Status4codeEv(ptr noundef nonnull align 8 dereferenceable(16) %0) #2 comdat align 2 {
  %2 = alloca ptr, align 8
  store ptr %0, ptr %2, align 8, !tbaa !66
  %3 = load ptr, ptr %2, align 8
  call void @_ZNK7rocksdb6Status11MarkCheckedEv(ptr noundef nonnull align 8 dereferenceable(16) %3)
  %4 = getelementptr inbounds nuw %"class.rocksdb::Status", ptr %3, i32 0, i32 0
  %5 = load i8, ptr %4, align 8, !tbaa !68
  ret i8 %5
}

; Function Attrs: inlinehint mustprogress nounwind uwtable
define linkonce_odr void @_ZNK7rocksdb6Status11MarkCheckedEv(ptr noundef nonnull align 8 dereferenceable(16) %0) #3 comdat align 2 {
  %2 = alloca ptr, align 8
  store ptr %0, ptr %2, align 8, !tbaa !66
  ret void
}

; Function Attrs: mustprogress nounwind uwtable
define linkonce_odr void @_ZN7rocksdb13AlignedBuffer4SizeEm(ptr noundef nonnull align 8 dereferenceable(72) %0, i64 noundef %1) #2 comdat align 2 {
  %3 = alloca ptr, align 8
  %4 = alloca i64, align 8
  store ptr %0, ptr %3, align 8, !tbaa !33
  store i64 %1, ptr %4, align 8, !tbaa !11
  %5 = load ptr, ptr %3, align 8
  %6 = load i64, ptr %4, align 8, !tbaa !11
  %7 = getelementptr inbounds nuw %"class.rocksdb::AlignedBuffer", ptr %5, i32 0, i32 3
  store i64 %6, ptr %7, align 8, !tbaa !37
  ret void
}

; Function Attrs: mustprogress nounwind uwtable
define linkonce_odr noundef i64 @_ZN7rocksdb10BufferInfo11CurrentSizeEv(ptr noundef nonnull align 8 dereferenceable(144) %0) #2 comdat align 2 {
  %2 = alloca ptr, align 8
  store ptr %0, ptr %2, align 8, !tbaa !9
  %3 = load ptr, ptr %2, align 8
  %4 = getelementptr inbounds nuw %"struct.rocksdb::BufferInfo", ptr %3, i32 0, i32 0
  %5 = call noundef i64 @_ZNK7rocksdb13AlignedBuffer11CurrentSizeEv(ptr noundef nonnull align 8 dereferenceable(72) %4)
  ret i64 %5
}

; Function Attrs: mustprogress nounwind uwtable
define linkonce_odr noundef i64 @_ZNK7rocksdb5Slice4sizeEv(ptr noundef nonnull align 8 dereferenceable(16) %0) #2 comdat align 2 {
  %2 = alloca ptr, align 8
  store ptr %0, ptr %2, align 8, !tbaa !61
  %3 = load ptr, ptr %2, align 8
  %4 = getelementptr inbounds nuw %"class.rocksdb::Slice", ptr %3, i32 0, i32 1
  %5 = load i64, ptr %4, align 8, !tbaa !65
  ret i64 %5
}

; Function Attrs: mustprogress uwtable
define linkonce_odr noundef zeroext i1 @_ZNK7rocksdb6Status2okEv(ptr noundef nonnull align 8 dereferenceable(16) %0) #0 comdat align 2 {
  %2 = alloca ptr, align 8
  store ptr %0, ptr %2, align 8, !tbaa !66
  %3 = load ptr, ptr %2, align 8
  call void @_ZNK7rocksdb6Status11MarkCheckedEv(ptr noundef nonnull align 8 dereferenceable(16) %3)
  %4 = call noundef zeroext i8 @_ZNK7rocksdb6Status4codeEv(ptr noundef nonnull align 8 dereferenceable(16) %3)
  %5 = zext i8 %4 to i32
  %6 = icmp eq i32 %5, 0
  ret i1 %6
}

; Function Attrs: mustprogress uwtable
define void @_ZN7rocksdb18FilePrefetchBuffer21PrefetchAsyncCallbackERNS_13FSReadRequestEPv(ptr noundef nonnull align 8 dereferenceable(320) %0, ptr noundef nonnull align 8 dereferenceable(96) %1, ptr noundef %2) #0 align 2 {
  %4 = alloca ptr, align 8
  %5 = alloca ptr, align 8
  %6 = alloca ptr, align 8
  %7 = alloca ptr, align 8
  %8 = alloca i32, align 4
  %9 = alloca i64, align 8
  store ptr %0, ptr %4, align 8, !tbaa !4
  store ptr %1, ptr %5, align 8, !tbaa !109
  store ptr %2, ptr %6, align 8, !tbaa !102
  call void @llvm.lifetime.start.p0(i64 8, ptr %7) #16
  %10 = load ptr, ptr %6, align 8, !tbaa !102
  store ptr %10, ptr %7, align 8, !tbaa !9
  %11 = load ptr, ptr %5, align 8, !tbaa !109
  %12 = getelementptr inbounds nuw %"struct.rocksdb::FSReadRequest", ptr %11, i32 0, i32 4
  %13 = call noundef zeroext i1 @_ZNK7rocksdb6Status2okEv(ptr noundef nonnull align 8 dereferenceable(16) %12)
  br i1 %13, label %14, label %49

14:                                               ; preds = %3
  %15 = load ptr, ptr %5, align 8, !tbaa !109
  %16 = getelementptr inbounds nuw %"struct.rocksdb::FSReadRequest", ptr %15, i32 0, i32 0
  %17 = load i64, ptr %16, align 8, !tbaa !84
  %18 = load ptr, ptr %5, align 8, !tbaa !109
  %19 = getelementptr inbounds nuw %"struct.rocksdb::FSReadRequest", ptr %18, i32 0, i32 3
  %20 = call noundef i64 @_ZNK7rocksdb5Slice4sizeEv(ptr noundef nonnull align 8 dereferenceable(16) %19)
  %21 = add i64 %17, %20
  %22 = load ptr, ptr %7, align 8, !tbaa !9
  %23 = getelementptr inbounds nuw %"struct.rocksdb::BufferInfo", ptr %22, i32 0, i32 1
  %24 = load i64, ptr %23, align 8, !tbaa !17
  %25 = load ptr, ptr %7, align 8, !tbaa !9
  %26 = call noundef i64 @_ZN7rocksdb10BufferInfo11CurrentSizeEv(ptr noundef nonnull align 8 dereferenceable(144) %25)
  %27 = add i64 %24, %26
  %28 = icmp ule i64 %21, %27
  br i1 %28, label %29, label %30

29:                                               ; preds = %14
  store i32 1, ptr %8, align 4
  br label %50

30:                                               ; preds = %14
  %31 = load ptr, ptr %5, align 8, !tbaa !109
  %32 = getelementptr inbounds nuw %"struct.rocksdb::FSReadRequest", ptr %31, i32 0, i32 0
  %33 = load i64, ptr %32, align 8, !tbaa !84
  %34 = load ptr, ptr %7, align 8, !tbaa !9
  %35 = getelementptr inbounds nuw %"struct.rocksdb::BufferInfo", ptr %34, i32 0, i32 1
  %36 = load i64, ptr %35, align 8, !tbaa !17
  %37 = icmp ult i64 %33, %36
  br i1 %37, label %38, label %39

38:                                               ; preds = %30
  store i32 1, ptr %8, align 4
  br label %50

39:                                               ; preds = %30
  call void @llvm.lifetime.start.p0(i64 8, ptr %9) #16
  %40 = load ptr, ptr %7, align 8, !tbaa !9
  %41 = call noundef i64 @_ZN7rocksdb10BufferInfo11CurrentSizeEv(ptr noundef nonnull align 8 dereferenceable(144) %40)
  store i64 %41, ptr %9, align 8, !tbaa !11
  %42 = load ptr, ptr %7, align 8, !tbaa !9
  %43 = getelementptr inbounds nuw %"struct.rocksdb::BufferInfo", ptr %42, i32 0, i32 0
  %44 = load i64, ptr %9, align 8, !tbaa !11
  %45 = load ptr, ptr %5, align 8, !tbaa !109
  %46 = getelementptr inbounds nuw %"struct.rocksdb::FSReadRequest", ptr %45, i32 0, i32 3
  %47 = call noundef i64 @_ZNK7rocksdb5Slice4sizeEv(ptr noundef nonnull align 8 dereferenceable(16) %46)
  %48 = add i64 %44, %47
  call void @_ZN7rocksdb13AlignedBuffer4SizeEm(ptr noundef nonnull align 8 dereferenceable(72) %43, i64 noundef %48)
  call void @llvm.lifetime.end.p0(i64 8, ptr %9) #16
  br label %49

49:                                               ; preds = %39, %3
  store i32 0, ptr %8, align 4
  br label %50

50:                                               ; preds = %49, %38, %29
  call void @llvm.lifetime.end.p0(i64 8, ptr %7) #16
  %51 = load i32, ptr %8, align 4
  switch i32 %51, label %53 [
    i32 0, label %52
    i32 1, label %52
  ]

52:                                               ; preds = %50, %50
  ret void

53:                                               ; preds = %50
  unreachable
}