; Function Attrs: mustprogress nofree norecurse nosync nounwind willreturn memory(argmem: readwrite) uwtable
define void @_ZN7rocksdb18FilePrefetchBuffer21PrefetchAsyncCallbackERNS_13FSReadRequestEPv(ptr nonnull readnone align 8 captures(none) %0, ptr noundef nonnull readonly align 8 captures(none) dereferenceable(96) %1, ptr noundef captures(none) %2) #4 align 2 {
  %4 = getelementptr inbounds nuw i8, ptr %1, i64 40
  %5 = load i8, ptr %4, align 8, !tbaa !46
  %6 = icmp eq i8 %5, 0
  br i1 %6, label %7, label %20

7:                                                ; preds = %3
  %8 = load i64, ptr %1, align 8, !tbaa !79
  %9 = getelementptr inbounds nuw i8, ptr %1, i64 32
  %10 = load i64, ptr %9, align 8, !tbaa !35
  %11 = add i64 %10, %8
  %12 = getelementptr inbounds nuw i8, ptr %2, i64 72
  %13 = load i64, ptr %12, align 8, !tbaa !21
  %14 = getelementptr inbounds nuw i8, ptr %2, i64 56
  %15 = load i64, ptr %14, align 8, !tbaa !4
  %16 = add i64 %15, %13
  %.not = icmp ule i64 %11, %16
  %17 = icmp ult i64 %8, %13
  %or.cond = or i1 %17, %.not
  br i1 %or.cond, label %20, label %18

18:                                               ; preds = %7
  %19 = add i64 %15, %10
  store i64 %19, ptr %14, align 8, !tbaa !4
  br label %20

20:                                               ; preds = %3, %18, %7
  ret void
}